(dp1
S'output'
p2
S"<type 'exceptions.SyntaxError'> Set: no tables selected"
p3
sS'layer'
p4
S'/home/yash/Downloads/web2py/applications/mywiki/controllers/default.py'
p5
sS'code'
p6
S'def index():\n    """ this controller returns a dictionary rendered by the view\n    it lists all wiki pages\n    >>> index().has_key(\'pages\')\n    True\n    """\n    msg="Welcome"\n    return dict(msg=msg)\n@auth.requires_login()\ndef create():\n    """creates a new empty wiki page"""\n    form = SQLFORM(db.page).process(next=URL(\'index\'))\n    return dict(form=form)\n@auth.requires_login()\ndef show():\n    """shows a wiki page"""\n    this_page = db.page(request.args(0,cast=int)) or redirect(URL(\'index\'))\n    db.post.page_id.default = this_page.id\n    form = SQLFORM(db.post).process() if auth.user else None\n    pagecomments = db(db.post.page_id==this_page.id).select()\n    return dict(page=this_page, comments=pagecomments, form=form)\n@auth.requires_login()\ndef showall():\n    pages = db().select()\n    return dict(pages=pages)\n@auth.requires_login()\ndef showmy():\n    pages = db(db.page.email==auth.user.email).select()\n    return dict(pages=pages)\n\n@auth.requires_login()\ndef edit():\n    """edit an existing wiki page"""\n    this_page = db.page(request.args(0,cast=int)) or redirect(URL(\'index\'))\n    form = SQLFORM(db.page, this_page).process(\n    next = URL(\'show\',args=request.args))\n    return dict(form=form)\ndef user():\n    return dict(form=auth())\n\ndef download():\n    """allows downloading of documents"""\n    return response.download(request, db)\ndef search():\n    """an ajax wiki search page"""\n    return dict(form=FORM(INPUT(_id=\'keyword\',_name=\'keyword\',\n        _onkeyup="ajax(\'callback\', [\'keyword\'], \'target\');")),\n        target_div=DIV(_id=\'target\'))\ndef callback():\n    """an ajax callback that returns a <ul> of links to wiki pages"""\n    query = db.page.recipe_name.contains(request.vars.keyword)\n    pages = db(query).select(orderby=db.page.title)\n    links = [A(p.recipe_name, _href=URL(\'show\',args=p.id)) for p in pages]\n    return UL(*links)\n\nresponse._vars=response._caller(showall)\n'
p7
sS'snapshot'
p8
(dp9
sS'traceback'
p10
S'Traceback (most recent call last):\n  File "/home/yash/Downloads/web2py/gluon/restricted.py", line 227, in restricted\n    exec ccode in environment\n  File "/home/yash/Downloads/web2py/applications/mywiki/controllers/default.py", line 56, in <module>\n  File "/home/yash/Downloads/web2py/gluon/globals.py", line 412, in <lambda>\n    self._caller = lambda f: f()\n  File "/home/yash/Downloads/web2py/gluon/tools.py", line 4236, in f\n    return action(*a, **b)\n  File "/home/yash/Downloads/web2py/applications/mywiki/controllers/default.py", line 24, in showall\n    pages = db().select()\n  File "/home/yash/Downloads/web2py/gluon/packages/dal/pydal/objects.py", line 2025, in select\n    return adapter.select(self.query,fields,attributes)\n  File "/home/yash/Downloads/web2py/gluon/packages/dal/pydal/adapters/sqlite.py", line 124, in select\n    return super(SQLiteAdapter, self).select(query, fields, attributes)\n  File "/home/yash/Downloads/web2py/gluon/packages/dal/pydal/adapters/base.py", line 1280, in select\n    sql = self._select(query, fields, attributes)\n  File "/home/yash/Downloads/web2py/gluon/packages/dal/pydal/adapters/base.py", line 1101, in _select\n    raise SyntaxError(\'Set: no tables selected\')\nSyntaxError: Set: no tables selected\n'
p11
s.